; Function Attrs: inlinehint mustprogress nofree norecurse nosync nounwind willreturn memory(read, inaccessiblemem: none) uwtable
define internal fastcc i32 @PyUnicode_READ_CHAR(ptr noundef nonnull readonly captures(none) %0) unnamed_addr #4 {
  %2 = getelementptr inbounds nuw i8, ptr %0, i64 34
  %3 = load i16, ptr %2, align 2
  %4 = and i16 %3, 7
  %5 = and i16 %3, 8
  %.not.i19 = icmp eq i16 %5, 0
  switch i16 %4, label %20 [
    i16 1, label %6
    i16 2, label %13
  ]

6:                                                ; preds = %1
  br i1 %.not.i19, label %9, label %7

7:                                                ; preds = %6
  %8 = and i16 %3, 16
  %.not.i.i = icmp eq i16 %8, 0
  %.0.v.i.i = select i1 %.not.i.i, i64 56, i64 40
  %.0.i.i = getelementptr i8, ptr %0, i64 %.0.v.i.i
  br label %_PyUnicode_DATA.exit

9:                                                ; preds = %6
  %10 = getelementptr i8, ptr %0, i64 56
  %.val4.i = load ptr, ptr %10, align 8, !tbaa !10
  br label %_PyUnicode_DATA.exit

_PyUnicode_DATA.exit:                             ; preds = %7, %9
  %.0.i = phi ptr [ %.0.i.i, %7 ], [ %.val4.i, %9 ]
  %11 = load i8, ptr %.0.i, align 1, !tbaa !10
  %12 = zext i8 %11 to i32
  br label %26

13:                                               ; preds = %1
  br i1 %.not.i19, label %16, label %14

14:                                               ; preds = %13
  %15 = and i16 %3, 16
  %.not.i.i12 = icmp eq i16 %15, 0
  %.0.v.i.i13 = select i1 %.not.i.i12, i64 56, i64 40
  %.0.i.i14 = getelementptr i8, ptr %0, i64 %.0.v.i.i13
  br label %_PyUnicode_DATA.exit17

16:                                               ; preds = %13
  %17 = getelementptr i8, ptr %0, i64 56
  %.val4.i16 = load ptr, ptr %17, align 8, !tbaa !10
  br label %_PyUnicode_DATA.exit17

_PyUnicode_DATA.exit17:                           ; preds = %14, %16
  %.0.i15 = phi ptr [ %.0.i.i14, %14 ], [ %.val4.i16, %16 ]
  %18 = load i16, ptr %.0.i15, align 2, !tbaa !42
  %19 = zext i16 %18 to i32
  br label %26

20:                                               ; preds = %1
  br i1 %.not.i19, label %23, label %21

21:                                               ; preds = %20
  %22 = and i16 %3, 16
  %.not.i.i20 = icmp eq i16 %22, 0
  %.0.v.i.i21 = select i1 %.not.i.i20, i64 56, i64 40
  %.0.i.i22 = getelementptr i8, ptr %0, i64 %.0.v.i.i21
  br label %_PyUnicode_DATA.exit25

23:                                               ; preds = %20
  %24 = getelementptr i8, ptr %0, i64 56
  %.val4.i24 = load ptr, ptr %24, align 8, !tbaa !10
  br label %_PyUnicode_DATA.exit25

_PyUnicode_DATA.exit25:                           ; preds = %21, %23
  %.0.i23 = phi ptr [ %.0.i.i22, %21 ], [ %.val4.i24, %23 ]
  %25 = load i32, ptr %.0.i23, align 4, !tbaa !43
  br label %26

26:                                               ; preds = %_PyUnicode_DATA.exit25, %_PyUnicode_DATA.exit17, %_PyUnicode_DATA.exit
  %.0 = phi i32 [ %12, %_PyUnicode_DATA.exit ], [ %19, %_PyUnicode_DATA.exit17 ], [ %25, %_PyUnicode_DATA.exit25 ]
  ret i32 %.0
}